target datalayout = "e-m:e-p270:32:32-p271:32:32-p272:64:64-i64:64-i128:128-f80:128-n8:16:32:64-S128"
target triple = "x86_64-pc-linux-gnu"

%"struct.duckdb::utf8proc_property_struct" = type { i16, i16, i16, i16, i16, i16, i16, i16, i16, i16, i16, [2 x i8] }

; Function Attrs: mustprogress nounwind uwtable
define internal noundef ptr @_ZN6duckdbL19unsafe_get_propertyEi(i32 noundef %0) #0 {
  %2 = alloca i32, align 4
  store i32 %0, ptr %2, align 4, !tbaa !12
  %3 = load i32, ptr %2, align 4, !tbaa !12
  %4 = ashr i32 %3, 8
  %5 = sext i32 %4 to i64
  %6 = getelementptr inbounds [4352 x i16], ptr @_ZN6duckdbL20utf8proc_stage1tableE, i64 0, i64 %5
  %7 = load i16, ptr %6, align 2, !tbaa !15
  %8 = zext i16 %7 to i32
  %9 = load i32, ptr %2, align 4, !tbaa !12
  %10 = and i32 %9, 255
  %11 = add nsw i32 %8, %10
  %12 = sext i32 %11 to i64
  %13 = getelementptr inbounds [44800 x i16], ptr @_ZN6duckdbL20utf8proc_stage2tableE, i64 0, i64 %12
  %14 = load i16, ptr %13, align 2, !tbaa !15
  %15 = zext i16 %14 to i32
  %16 = sext i32 %15 to i64
  %17 = getelementptr inbounds %"struct.duckdb::utf8proc_property_struct", ptr @_ZN6duckdbL19utf8proc_propertiesE, i64 %16
  ret ptr %17
}

; Function Attrs: mustprogress uwtable
define noundef ptr @_ZN6duckdb21utf8proc_get_propertyEi(i32 noundef %0) #2 {
  %2 = alloca i32, align 4
  store i32 %0, ptr %2, align 4, !tbaa !12
  %3 = load i32, ptr %2, align 4, !tbaa !12
  %4 = icmp slt i32 %3, 0
  br i1 %4, label %8, label %5

5:                                                ; preds = %1
  %6 = load i32, ptr %2, align 4, !tbaa !12
  %7 = icmp sge i32 %6, 1114112
  br i1 %7, label %8, label %9

8:                                                ; preds = %5, %1
  br label %12

9:                                                ; preds = %5
  %10 = load i32, ptr %2, align 4, !tbaa !12
  %11 = call noundef ptr @_ZN6duckdbL19unsafe_get_propertyEi(i32 noundef %10)
  br label %12

12:                                               ; preds = %9, %8
  %13 = phi ptr [ @_ZN6duckdbL19utf8proc_propertiesE, %8 ], [ %11, %9 ]
  ret ptr %13
}

; Function Attrs: mustprogress uwtable
define noundef i32 @_ZN6duckdb17utf8proc_categoryEi(i32 noundef %0) #2 {
  %2 = alloca i32, align 4
  store i32 %0, ptr %2, align 4, !tbaa !12
  %3 = load i32, ptr %2, align 4, !tbaa !12
  %4 = call noundef ptr @_ZN6duckdb21utf8proc_get_propertyEi(i32 noundef %3)
  %5 = getelementptr inbounds nuw %"struct.duckdb::utf8proc_property_struct", ptr %4, i32 0, i32 0
  %6 = load i16, ptr %5, align 4, !tbaa !29
  %7 = sext i16 %6 to i32
  ret i32 %7
}

; Function Attrs: mustprogress uwtable
define noundef ptr @_ZN6duckdb24utf8proc_category_stringEi(i32 noundef %0) #2 {
  %2 = alloca i32, align 4
  store i32 %0, ptr %2, align 4, !tbaa !12
  %3 = load i32, ptr %2, align 4, !tbaa !12
  %4 = call noundef i32 @_ZN6duckdb17utf8proc_categoryEi(i32 noundef %3)
  %5 = zext i32 %4 to i64
  %6 = getelementptr inbounds nuw [30 x [3 x i8]], ptr @_ZZN6duckdb24utf8proc_category_stringEiE1s, i64 0, i64 %5
  %7 = getelementptr inbounds [3 x i8], ptr %6, i64 0, i64 0
  ret ptr %7
}