; Function Attrs: mustprogress nofree norecurse nosync nounwind willreturn memory(none) uwtable
define noundef nonnull ptr @_ZN6duckdb24utf8proc_category_stringEi(i32 noundef %0) local_unnamed_addr #0 {
  %or.cond.i.i = icmp ugt i32 %0, 1114111
  br i1 %or.cond.i.i, label %_ZN6duckdb17utf8proc_categoryEi.exit, label %2

2:                                                ; preds = %1
  %3 = lshr i32 %0, 8
  %4 = zext nneg i32 %3 to i64
  %5 = getelementptr inbounds nuw [4352 x i16], ptr @_ZN6duckdbL20utf8proc_stage1tableE, i64 0, i64 %4
  %6 = load i16, ptr %5, align 2, !tbaa !8
  %7 = zext i16 %6 to i32
  %8 = and i32 %0, 255
  %9 = add nuw nsw i32 %8, %7
  %10 = zext nneg i32 %9 to i64
  %11 = getelementptr inbounds nuw [44800 x i16], ptr @_ZN6duckdbL20utf8proc_stage2tableE, i64 0, i64 %10
  %12 = load i16, ptr %11, align 2, !tbaa !8
  %13 = zext i16 %12 to i64
  %14 = getelementptr inbounds nuw %"struct.duckdb::utf8proc_property_struct", ptr @_ZN6duckdbL19utf8proc_propertiesE, i64 %13
  br label %_ZN6duckdb17utf8proc_categoryEi.exit

_ZN6duckdb17utf8proc_categoryEi.exit:             ; preds = %1, %2
  %15 = phi ptr [ %14, %2 ], [ @_ZN6duckdbL19utf8proc_propertiesE, %1 ]
  %16 = load i16, ptr %15, align 4, !tbaa !14
  %17 = sext i16 %16 to i64
  %18 = and i64 %17, 4294967295
  %19 = getelementptr inbounds nuw [30 x [3 x i8]], ptr @_ZZN6duckdb24utf8proc_category_stringEiE1s, i64 0, i64 %18
  ret ptr %19
}